target datalayout = "e-m:e-p270:32:32-p271:32:32-p272:64:64-i64:64-i128:128-f80:128-n8:16:32:64-S128"
target triple = "x86_64-pc-linux-gnu"

%struct.AVFilterContext = type { ptr, ptr, ptr, ptr, ptr, i32, ptr, ptr, i32, ptr, ptr, i32, i32, ptr, ptr, ptr, ptr, i32, ptr, i32, i32 }
%struct.AudioNLMSContext = type { ptr, i32, float, float, float, i32, i32, i32, ptr, ptr, ptr, ptr, [2 x ptr], i32, ptr, ptr }
%struct.AVRational = type { i32, i32 }
%struct.AVChannelLayout = type { i32, i32, %union.anon.1, ptr }
%union.anon.1 = type { i64 }
%struct.AVFilterLink = type { ptr, ptr, ptr, ptr, i32, i32, i32, i32, %struct.AVRational, i32, i32, i32, %struct.AVChannelLayout, %struct.AVRational, ptr, i32, %struct.AVFilterFormatsConfig, %struct.AVFilterFormatsConfig }
%struct.AVFilterFormatsConfig = type { ptr, ptr, ptr, ptr, ptr }
%struct.AVFilter = type { ptr, ptr, ptr, ptr, ptr, i32 }

@.str.2 = private unnamed_addr constant [6 x i8] c"anlmf\00", align 1

; Function Attrs: nounwind uwtable
define internal i32 @config_output(ptr noundef %0) #2 {
  %2 = alloca i32, align 4
  %3 = alloca ptr, align 8
  %4 = alloca ptr, align 8
  %5 = alloca ptr, align 8
  %6 = alloca i32, align 4
  store ptr %0, ptr %3, align 8, !tbaa !30
  call void @llvm.lifetime.start.p0(i64 8, ptr %4) #7
  %7 = load ptr, ptr %3, align 8, !tbaa !30
  %8 = getelementptr inbounds nuw %struct.AVFilterLink, ptr %7, i32 0, i32 0
  %9 = load ptr, ptr %8, align 8, !tbaa !62
  store ptr %9, ptr %4, align 8, !tbaa !4
  call void @llvm.lifetime.start.p0(i64 8, ptr %5) #7
  %10 = load ptr, ptr %4, align 8, !tbaa !4
  %11 = getelementptr inbounds nuw %struct.AVFilterContext, ptr %10, i32 0, i32 9
  %12 = load ptr, ptr %11, align 8, !tbaa !9
  store ptr %12, ptr %5, align 8, !tbaa !22
  %13 = load ptr, ptr %4, align 8, !tbaa !4
  %14 = getelementptr inbounds nuw %struct.AVFilterContext, ptr %13, i32 0, i32 1
  %15 = load ptr, ptr %14, align 8, !tbaa !63
  %16 = getelementptr inbounds nuw %struct.AVFilter, ptr %15, i32 0, i32 0
  %17 = load ptr, ptr %16, align 8, !tbaa !64
  %18 = call i32 @strcmp(ptr noundef %17, ptr noundef @.str.2) #8
  %19 = icmp ne i32 %18, 0
  %20 = xor i1 %19, true
  %21 = zext i1 %20 to i32
  %22 = load ptr, ptr %5, align 8, !tbaa !22
  %23 = getelementptr inbounds nuw %struct.AudioNLMSContext, ptr %22, i32 0, i32 13
  store i32 %21, ptr %23, align 8, !tbaa !66
  %24 = load ptr, ptr %5, align 8, !tbaa !22
  %25 = getelementptr inbounds nuw %struct.AudioNLMSContext, ptr %24, i32 0, i32 1
  %26 = load i32, ptr %25, align 8, !tbaa !67
  %27 = add nsw i32 %26, 16
  %28 = sub nsw i32 %27, 1
  %29 = and i32 %28, -16
  %30 = load ptr, ptr %5, align 8, !tbaa !22
  %31 = getelementptr inbounds nuw %struct.AudioNLMSContext, ptr %30, i32 0, i32 7
  store i32 %29, ptr %31, align 8, !tbaa !68
  %32 = load ptr, ptr %5, align 8, !tbaa !22
  %33 = getelementptr inbounds nuw %struct.AudioNLMSContext, ptr %32, i32 0, i32 8
  %34 = load ptr, ptr %33, align 8, !tbaa !69
  %35 = icmp ne ptr %34, null
  br i1 %35, label %41, label %36

36:                                               ; preds = %1
  %37 = load ptr, ptr %3, align 8, !tbaa !30
  %38 = call ptr @ff_get_audio_buffer(ptr noundef %37, i32 noundef 1)
  %39 = load ptr, ptr %5, align 8, !tbaa !22
  %40 = getelementptr inbounds nuw %struct.AudioNLMSContext, ptr %39, i32 0, i32 8
  store ptr %38, ptr %40, align 8, !tbaa !69
  br label %41

41:                                               ; preds = %36, %1
  %42 = load ptr, ptr %5, align 8, !tbaa !22
  %43 = getelementptr inbounds nuw %struct.AudioNLMSContext, ptr %42, i32 0, i32 9
  %44 = load ptr, ptr %43, align 8, !tbaa !70
  %45 = icmp ne ptr %44, null
  br i1 %45, label %55, label %46

46:                                               ; preds = %41
  %47 = load ptr, ptr %3, align 8, !tbaa !30
  %48 = load ptr, ptr %5, align 8, !tbaa !22
  %49 = getelementptr inbounds nuw %struct.AudioNLMSContext, ptr %48, i32 0, i32 7
  %50 = load i32, ptr %49, align 8, !tbaa !68
  %51 = mul nsw i32 2, %50
  %52 = call ptr @ff_get_audio_buffer(ptr noundef %47, i32 noundef %51)
  %53 = load ptr, ptr %5, align 8, !tbaa !22
  %54 = getelementptr inbounds nuw %struct.AudioNLMSContext, ptr %53, i32 0, i32 9
  store ptr %52, ptr %54, align 8, !tbaa !70
  br label %55

55:                                               ; preds = %46, %41
  %56 = load ptr, ptr %5, align 8, !tbaa !22
  %57 = getelementptr inbounds nuw %struct.AudioNLMSContext, ptr %56, i32 0, i32 10
  %58 = load ptr, ptr %57, align 8, !tbaa !71
  %59 = icmp ne ptr %58, null
  br i1 %59, label %69, label %60

60:                                               ; preds = %55
  %61 = load ptr, ptr %3, align 8, !tbaa !30
  %62 = load ptr, ptr %5, align 8, !tbaa !22
  %63 = getelementptr inbounds nuw %struct.AudioNLMSContext, ptr %62, i32 0, i32 7
  %64 = load i32, ptr %63, align 8, !tbaa !68
  %65 = mul nsw i32 2, %64
  %66 = call ptr @ff_get_audio_buffer(ptr noundef %61, i32 noundef %65)
  %67 = load ptr, ptr %5, align 8, !tbaa !22
  %68 = getelementptr inbounds nuw %struct.AudioNLMSContext, ptr %67, i32 0, i32 10
  store ptr %66, ptr %68, align 8, !tbaa !71
  br label %69

69:                                               ; preds = %60, %55
  %70 = load ptr, ptr %5, align 8, !tbaa !22
  %71 = getelementptr inbounds nuw %struct.AudioNLMSContext, ptr %70, i32 0, i32 11
  %72 = load ptr, ptr %71, align 8, !tbaa !72
  %73 = icmp ne ptr %72, null
  br i1 %73, label %82, label %74

74:                                               ; preds = %69
  %75 = load ptr, ptr %3, align 8, !tbaa !30
  %76 = load ptr, ptr %5, align 8, !tbaa !22
  %77 = getelementptr inbounds nuw %struct.AudioNLMSContext, ptr %76, i32 0, i32 7
  %78 = load i32, ptr %77, align 8, !tbaa !68
  %79 = call ptr @ff_get_audio_buffer(ptr noundef %75, i32 noundef %78)
  %80 = load ptr, ptr %5, align 8, !tbaa !22
  %81 = getelementptr inbounds nuw %struct.AudioNLMSContext, ptr %80, i32 0, i32 11
  store ptr %79, ptr %81, align 8, !tbaa !72
  br label %82

82:                                               ; preds = %74, %69
  %83 = load ptr, ptr %5, align 8, !tbaa !22
  %84 = getelementptr inbounds nuw %struct.AudioNLMSContext, ptr %83, i32 0, i32 9
  %85 = load ptr, ptr %84, align 8, !tbaa !70
  %86 = icmp ne ptr %85, null
  br i1 %86, label %87, label %102

87:                                               ; preds = %82
  %88 = load ptr, ptr %5, align 8, !tbaa !22
  %89 = getelementptr inbounds nuw %struct.AudioNLMSContext, ptr %88, i32 0, i32 10
  %90 = load ptr, ptr %89, align 8, !tbaa !71
  %91 = icmp ne ptr %90, null
  br i1 %91, label %92, label %102

92:                                               ; preds = %87
  %93 = load ptr, ptr %5, align 8, !tbaa !22
  %94 = getelementptr inbounds nuw %struct.AudioNLMSContext, ptr %93, i32 0, i32 8
  %95 = load ptr, ptr %94, align 8, !tbaa !69
  %96 = icmp ne ptr %95, null
  br i1 %96, label %97, label %102

97:                                               ; preds = %92
  %98 = load ptr, ptr %5, align 8, !tbaa !22
  %99 = getelementptr inbounds nuw %struct.AudioNLMSContext, ptr %98, i32 0, i32 11
  %100 = load ptr, ptr %99, align 8, !tbaa !72
  %101 = icmp ne ptr %100, null
  br i1 %101, label %103, label %102

102:                                              ; preds = %97, %92, %87, %82
  store i32 -12, ptr %2, align 4
  store i32 1, ptr %6, align 4
  br label %114

103:                                              ; preds = %97
  %104 = load ptr, ptr %3, align 8, !tbaa !30
  %105 = getelementptr inbounds nuw %struct.AVFilterLink, ptr %104, i32 0, i32 5
  %106 = load i32, ptr %105, align 4, !tbaa !73
  switch i32 %106, label %113 [
    i32 9, label %107
    i32 8, label %110
  ]

107:                                              ; preds = %103
  %108 = load ptr, ptr %5, align 8, !tbaa !22
  %109 = getelementptr inbounds nuw %struct.AudioNLMSContext, ptr %108, i32 0, i32 14
  store ptr @filter_channels_double, ptr %109, align 8, !tbaa !48
  br label %113

110:                                              ; preds = %103
  %111 = load ptr, ptr %5, align 8, !tbaa !22
  %112 = getelementptr inbounds nuw %struct.AudioNLMSContext, ptr %111, i32 0, i32 14
  store ptr @filter_channels_float, ptr %112, align 8, !tbaa !48
  br label %113

113:                                              ; preds = %103, %110, %107
  store i32 0, ptr %2, align 4
  store i32 1, ptr %6, align 4
  br label %114

114:                                              ; preds = %113, %102
  call void @llvm.lifetime.end.p0(i64 8, ptr %5) #7
  call void @llvm.lifetime.end.p0(i64 8, ptr %4) #7
  %115 = load i32, ptr %2, align 4
  ret i32 %115
}