; Function Attrs: nounwind uwtable
define internal range(i32 -12, 1) i32 @config_output(ptr noundef %0) #2 {
  %2 = load ptr, ptr %0, align 8, !tbaa !57
  %3 = getelementptr inbounds nuw i8, ptr %2, i64 72
  %4 = load ptr, ptr %3, align 8, !tbaa !4
  %5 = getelementptr inbounds nuw i8, ptr %2, i64 8
  %6 = load ptr, ptr %5, align 8, !tbaa !58
  %7 = load ptr, ptr %6, align 8, !tbaa !59
  %8 = tail call i32 @strcmp(ptr noundef nonnull dereferenceable(1) %7, ptr noundef nonnull dereferenceable(6) @.str.2) #9
  %.not = icmp eq i32 %8, 0
  %9 = zext i1 %.not to i32
  %10 = getelementptr inbounds nuw i8, ptr %4, i64 88
  store i32 %9, ptr %10, align 8, !tbaa !61
  %11 = getelementptr inbounds nuw i8, ptr %4, i64 8
  %12 = load i32, ptr %11, align 8, !tbaa !62
  %13 = add nsw i32 %12, 15
  %14 = and i32 %13, -16
  %15 = getelementptr inbounds nuw i8, ptr %4, i64 32
  store i32 %14, ptr %15, align 8, !tbaa !63
  %16 = getelementptr inbounds nuw i8, ptr %4, i64 40
  %17 = load ptr, ptr %16, align 8, !tbaa !64
  %.not28 = icmp eq ptr %17, null
  br i1 %.not28, label %18, label %20

18:                                               ; preds = %1
  %19 = tail call ptr @ff_get_audio_buffer(ptr noundef nonnull %0, i32 noundef 1) #8
  store ptr %19, ptr %16, align 8, !tbaa !64
  br label %20

20:                                               ; preds = %18, %1
  %21 = getelementptr inbounds nuw i8, ptr %4, i64 48
  %22 = load ptr, ptr %21, align 8, !tbaa !65
  %.not29 = icmp eq ptr %22, null
  br i1 %.not29, label %23, label %27

23:                                               ; preds = %20
  %24 = load i32, ptr %15, align 8, !tbaa !63
  %25 = shl nsw i32 %24, 1
  %26 = tail call ptr @ff_get_audio_buffer(ptr noundef nonnull %0, i32 noundef %25) #8
  store ptr %26, ptr %21, align 8, !tbaa !65
  br label %27

27:                                               ; preds = %23, %20
  %28 = getelementptr inbounds nuw i8, ptr %4, i64 56
  %29 = load ptr, ptr %28, align 8, !tbaa !66
  %.not30 = icmp eq ptr %29, null
  br i1 %.not30, label %30, label %34

30:                                               ; preds = %27
  %31 = load i32, ptr %15, align 8, !tbaa !63
  %32 = shl nsw i32 %31, 1
  %33 = tail call ptr @ff_get_audio_buffer(ptr noundef nonnull %0, i32 noundef %32) #8
  store ptr %33, ptr %28, align 8, !tbaa !66
  br label %34

34:                                               ; preds = %30, %27
  %35 = getelementptr inbounds nuw i8, ptr %4, i64 64
  %36 = load ptr, ptr %35, align 8, !tbaa !67
  %.not31 = icmp eq ptr %36, null
  br i1 %.not31, label %37, label %41

37:                                               ; preds = %34
  %38 = load i32, ptr %15, align 8, !tbaa !63
  %39 = tail call ptr @ff_get_audio_buffer(ptr noundef nonnull %0, i32 noundef %38) #8
  store ptr %39, ptr %35, align 8, !tbaa !67
  %40 = icmp eq ptr %39, null
  br label %41

41:                                               ; preds = %37, %34
  %.not35 = phi i1 [ %40, %37 ], [ false, %34 ]
  %42 = load ptr, ptr %21, align 8, !tbaa !65
  %.not32 = icmp eq ptr %42, null
  br i1 %.not32, label %52, label %43

43:                                               ; preds = %41
  %44 = load ptr, ptr %28, align 8, !tbaa !66
  %.not33 = icmp eq ptr %44, null
  br i1 %.not33, label %52, label %45

45:                                               ; preds = %43
  %46 = load ptr, ptr %16, align 8, !tbaa !64
  %.not34 = icmp eq ptr %46, null
  %brmerge = select i1 %.not34, i1 true, i1 %.not35
  br i1 %brmerge, label %52, label %47

47:                                               ; preds = %45
  %48 = getelementptr inbounds nuw i8, ptr %0, i64 36
  %49 = load i32, ptr %48, align 4, !tbaa !68
  switch i32 %49, label %52 [
    i32 9, label %.sink.split
    i32 8, label %50
  ]

50:                                               ; preds = %47
  br label %.sink.split

.sink.split:                                      ; preds = %47, %50
  %filter_channels_double.sink = phi ptr [ @filter_channels_float, %50 ], [ @filter_channels_double, %47 ]
  %51 = getelementptr inbounds nuw i8, ptr %4, i64 96
  store ptr %filter_channels_double.sink, ptr %51, align 8, !tbaa !43
  br label %52

52:                                               ; preds = %.sink.split, %45, %47, %41, %43
  %.0 = phi i32 [ -12, %45 ], [ -12, %43 ], [ -12, %41 ], [ 0, %47 ], [ 0, %.sink.split ]
  ret i32 %.0
}